; Function Attrs: nounwind uwtable
define ptr @l___private_Lean_Meta_Tactic_Grind_EMatch_0__Lean_Meta_Grind_EMatch_withInitApp___rarg(ptr noundef %0, ptr noundef %1, ptr noundef %2, ptr noundef %3, ptr noundef %4, ptr noundef %5, ptr noundef %6, ptr noundef %7, ptr noundef %8, ptr noundef %9, ptr noundef %10, ptr noundef %11, ptr noundef %12) #0 {
  %.val = load i32, ptr %2, align 4, !tbaa !8
  %14 = icmp eq i32 %.val, 1
  br i1 %14, label %15, label %27

15:                                               ; preds = %13
  %16 = getelementptr inbounds nuw i8, ptr %2, i64 16
  %17 = load ptr, ptr %16, align 8, !tbaa !4
  %18 = ptrtoint ptr %17 to i64
  %19 = and i64 %18, 1
  %.not47 = icmp eq i64 %19, 0
  br i1 %.not47, label %20, label %lean_dec.exit42

20:                                               ; preds = %15
  %21 = load i32, ptr %17, align 4, !tbaa !8
  %22 = icmp sgt i32 %21, 1
  br i1 %22, label %23, label %25, !prof !11

23:                                               ; preds = %20
  %24 = add nsw i32 %21, -1
  store i32 %24, ptr %17, align 4, !tbaa !8
  br label %lean_dec.exit42

25:                                               ; preds = %20
  %.not.i = icmp eq i32 %21, 0
  br i1 %.not.i, label %lean_dec.exit42, label %26

26:                                               ; preds = %25
  tail call void @lean_dec_ref_cold(ptr noundef nonnull %17) #5
  br label %lean_dec.exit42

lean_dec.exit42:                                  ; preds = %26, %25, %23, %15
  store ptr %0, ptr %16, align 8, !tbaa !4
  br label %56

27:                                               ; preds = %13
  %28 = getelementptr inbounds nuw i8, ptr %2, i64 8
  %29 = getelementptr inbounds nuw i8, ptr %2, i64 24
  %30 = load i8, ptr %29, align 1, !tbaa !16
  %31 = load ptr, ptr %28, align 8, !tbaa !4
  %32 = ptrtoint ptr %31 to i64
  %33 = and i64 %32, 1
  %.not = icmp eq i64 %33, 0
  br i1 %.not, label %34, label %lean_inc.exit

34:                                               ; preds = %27
  %.val.i = load i32, ptr %31, align 4, !tbaa !8
  %35 = icmp sgt i32 %.val.i, 0
  br i1 %35, label %36, label %38, !prof !11

36:                                               ; preds = %34
  %37 = add nuw i32 %.val.i, 1
  store i32 %37, ptr %31, align 4, !tbaa !8
  br label %lean_inc.exit

38:                                               ; preds = %34
  %.not.i45 = icmp eq i32 %.val.i, 0
  br i1 %.not.i45, label %lean_inc.exit, label %39

39:                                               ; preds = %38
  tail call void @lean_inc_ref_cold(ptr noundef nonnull %31) #5
  br label %lean_inc.exit

lean_inc.exit:                                    ; preds = %39, %38, %36, %27
  %40 = ptrtoint ptr %2 to i64
  %41 = and i64 %40, 1
  %.not46 = icmp eq i64 %41, 0
  br i1 %.not46, label %42, label %lean_dec.exit

42:                                               ; preds = %lean_inc.exit
  %43 = load i32, ptr %2, align 4, !tbaa !8
  %44 = icmp sgt i32 %43, 1
  br i1 %44, label %45, label %47, !prof !11

45:                                               ; preds = %42
  %46 = add nsw i32 %43, -1
  store i32 %46, ptr %2, align 4, !tbaa !8
  br label %lean_dec.exit

47:                                               ; preds = %42
  %.not.i43 = icmp eq i32 %43, 0
  br i1 %.not.i43, label %lean_dec.exit, label %48

48:                                               ; preds = %47
  tail call void @lean_dec_ref_cold(ptr noundef nonnull %2) #5
  br label %lean_dec.exit

lean_dec.exit:                                    ; preds = %48, %47, %45, %lean_inc.exit
  tail call void @lean_inc_heartbeat() #5
  %49 = tail call noalias ptr @mi_malloc_small(i64 noundef 32) #5
  %50 = icmp eq ptr %49, null
  br i1 %50, label %51, label %lean_alloc_ctor.exit

51:                                               ; preds = %lean_dec.exit
  tail call void @lean_internal_panic_out_of_memory() #6
  unreachable

lean_alloc_ctor.exit:                             ; preds = %lean_dec.exit
  %52 = getelementptr inbounds nuw i8, ptr %49, i64 4
  %53 = getelementptr inbounds nuw i8, ptr %49, i64 24
  store i64 0, ptr %53, align 8, !tbaa !12
  store i32 1, ptr %49, align 4, !tbaa !8
  store i32 131104, ptr %52, align 4
  %54 = getelementptr inbounds nuw i8, ptr %49, i64 8
  store ptr %31, ptr %54, align 8, !tbaa !4
  %55 = getelementptr inbounds nuw i8, ptr %49, i64 16
  store ptr %0, ptr %55, align 8, !tbaa !4
  store i8 %30, ptr %53, align 1, !tbaa !16
  br label %56

56:                                               ; preds = %lean_alloc_ctor.exit, %lean_dec.exit42
  %.sink = phi ptr [ %49, %lean_alloc_ctor.exit ], [ %2, %lean_dec.exit42 ]
  %57 = tail call ptr @lean_apply_11(ptr noundef %1, ptr noundef nonnull %.sink, ptr noundef %3, ptr noundef %4, ptr noundef %5, ptr noundef %6, ptr noundef %7, ptr noundef %8, ptr noundef %9, ptr noundef %10, ptr noundef %11, ptr noundef %12) #5
  ret ptr %57
}